cnltk.probability
FreqDist
p0
((dp1
S'suspenseful'
p2
I1
sS'four'
p3
I1
sS'sucksi'
p4
I1
sS'asian'
p5
I2
sS'mcgarther'
p6
I1
sS'hating'
p7
I2
sS'captain'
p8
I2
sS'hate'
p9
I578
sS'poorly'
p10
I1
sS'stinks'
p11
I4
sS'snowing'
p12
I1
sS'voted'
p13
I1
sS'scorebrokeback'
p14
I1
sS'trousers'
p15
I80
sS'lore'
p16
I1
sS'lord'
p17
I5
sS'sorry'
p18
I3
sS'spec'
p19
I1
sS'codeother'
p20
I1
sS'updated'
p21
I1
sS'oceans'
p22
I1
sS'every'
p23
I6
sS'jack'
p24
I3
sS'bringing'
p25
I1
sS'tickets'
p26
I2
sS'school'
p27
I6
sS'prize'
p28
I1
sS'clothed'
p29
I1
sS'undercover'
p30
I1
sS'enjoy'
p31
I9
sS'jamaica'
p32
I1
sS'tired'
p33
I2
sS'warns'
p34
I1
sS'hanging'
p35
I1
sS'feathers'
p36
I1
sS'talks'
p37
I1
sS'second'
p38
I12
sS'fabulous'
p39
I2
sS'friendships'
p40
I2
sS'spontaneously'
p41
I1
sS'even'
p42
I27
sS'hide'
p43
I2
sS'christ'
p44
I1
sS'musiclove'
p45
I1
sS'new'
p46
I11
sS'increasing'
p47
I1
sS'ever'
p48
I96
sS'disney'
p49
I2
sS'told'
p50
I6
sS'deemed'
p51
I1
sS'kicked'
p52
I1
sS'viewings'
p53
I1
sS'zach'
p54
I1
sS'gayer'
p55
I1
sS'never'
p56
I88
sS'here'
p57
I163
sS'back.jill'
p58
I1
sS'nanny'
p59
I1
sS'dork'
p60
I1
sS'kids'
p61
I6
sS'study'
p62
I1
sS'changed'
p63
I1
sS'controversy'
p64
I2
sS'credit'
p65
I1
sS'aka'
p66
I2
sS'otters'
p67
I1
sS'changes'
p68
I1
sS'campaign'
p69
I1
sS'blashpemies'
p70
I1
sS'julia'
p71
I1
sS'highly'
p72
I1
sS'bro'
p73
I1
sS'total'
p74
I1
sS'plot'
p75
I1
sS'spoke'
p76
I1
sS'would'
p77
I181
sS'geisha'
p78
I1
sS'music'
p79
I4
sS'preview'
p80
I1
sS'type'
p81
I81
sS'until'
p82
I5
sS'holy'
p83
I1
sS'oscar'
p84
I4
sS'haha'
p85
I1
sS'yahoo'
p86
I1
sS'award'
p87
I1
sS'disruption'
p88
I1
sS'adult'
p89
I2
sS'excellent'
p90
I86
sS'hold'
p91
I2
sS'must'
p92
I5
sS'me'
p93
I213
sS'ii'
p94
I40
sS'enjoying'
p95
I1
sS'word'
p96
I2
sS'room'
p97
I1
sS'work'
p98
I3
sS'mi'
p99
I1
sS'refusing'
p100
I1
sS'worth'
p101
I83
sS'movies'
p102
I366
sS'erm'
p103
I3
sS'my'
p104
I462
sS'example'
p105
I3
sS'fortress'
p106
I1
sS'give'
p107
I5
sS'dragons'
p108
I2
sS'gadgets'
p109
I1
sS'fyimission'
p110
I1
sS'want'
p111
I254
sS'azkaban'
p112
I1
sS'arenas'
p113
I1
sS'loathe'
p114
I2
sS'end'
p115
I5
sS'thing'
p116
I12
sS'trece'
p117
I1
sS'song'
p118
I5
sS'machine'
p119
I1
sS'how'
p120
I196
sS'amazing'
p121
I16
sS'writers'
p122
I1
sS'exelent'
p123
I1
sS'aching'
p124
I80
sS'interview'
p125
I1
sS'beach'
p126
I1
sS'blanks'
p127
I1
sS'lah'
p128
I2
sS'funny'
p129
I4
sS'bday'
p130
I1
sS'after'
p131
I20
sS'possum'
p132
I1
sS'wrong'
p133
I7
sS'fat'
p134
I3
sS'suing'
p135
I1
sS'purchase'
p136
I1
sS'attempt'
p137
I2
sS'third'
p138
I2
sS'wins'
p139
I1
sS'think'
p140
I202
sS'funniest'
p141
I2
sS'ultimate'
p142
I2
sS'keeps'
p143
I1
sS'fan'
p144
I6
sS'backdrop'
p145
I1
sS'office'
p146
I1
sS'over'
p147
I11
sS'zen'
p148
I80
sS'frakking'
p149
I1
sS'thesis'
p150
I1
sS'before'
p151
I9
sS'fit'
p152
I2
sS'fix'
p153
I1
sS'imo'
p154
I1
sS'comprehend'
p155
I1
sS'better'
p156
I96
sS'fic'
p157
I2
sS'differently'
p158
I80
sS'fade'
p159
I1
sS'then'
p160
I108
sS'them'
p161
I8
sS'tourist'
p162
I1
sS'pegg'
p163
I1
sS'blasphying'
p164
I1
sS'break'
p165
I1
sS'roommate'
p166
I1
sS'effects'
p167
I1
sS'they'
p168
I23
sS'schools'
p169
I1
sS'jesus'
p170
I4
sS'silver'
p171
I1
sS'meat'
p172
I1
sS'rocks'
p173
I85
sS'good'
p174
I123
sS'acoustic'
p175
I1
sS'went'
p176
I115
sS'side'
p177
I84
sS'mean'
p178
I7
sS'candy'
p179
I1
sS'fairly'
p180
I1
sS'eragon'
p181
I2
sS'series'
p182
I177
sS'literature'
p183
I1
sS'xmen'
p184
I6
sS'forgot'
p185
I1
sS'saturday'
p186
I2
sS'sorcerers'
p187
I1
sS'rv'
p188
I1
sS'obviouslyis'
p189
I1
sS'hooked'
p190
I1
sS'encourage'
p191
I1
sS'daniel'
p192
I81
sS'rare'
p193
I1
sS'banning'
p194
I1
sS'reader'
p195
I1
sS'got'
p196
I94
sS'hooker'
p197
I1
sS'quaintly'
p198
I1
sS'written'
p199
I2
sS'little'
p200
I7
sS'free'
p201
I1
sS'struggle'
p202
I1
sS'wanted'
p203
I82
sS'ate'
p204
I1
sS'created'
p205
I1
sS'leder'
p206
I1
sS'days'
p207
I5
sS'lousy'
p208
I2
sS'moving'
p209
I1
sS'onto'
p210
I1
sS'already'
p211
I13
sS'primary'
p212
I1
sS'hoot'
p213
I80
sS'fantasy'
p214
I1
sS'featured'
p215
I1
sS'delicious'
p216
I1
sS'thick'
p217
I1
sS'patirot'
p218
I1
sS'afterschool'
p219
I1
sS'top'
p220
I3
sS'girls'
p221
I2
sS'dumbass'
p222
I1
sS'too'
p223
I123
sS'tom'
p224
I103
sS'hollywood'
p225
I4
sS'john'
p226
I4
sS'bitter'
p227
I1
sS'listen'
p228
I1
sS'gym'
p229
I1
sS'took'
p230
I2
sS'godawful'
p231
I3
sS'predictable'
p232
I1
sS'tree'
p233
I1
sS'scenes'
p234
I1
sS'project'
p235
I1
sS'matter'
p236
I1
sS'classes'
p237
I4
sS'silly'
p238
I1
sS'friend'
p239
I3
sS'historical'
p240
I1
sS'knights'
p241
I2
sS'feeling'
p242
I2
sS'screenplay'
p243
I1
sS'donkey'
p244
I3
sS'groaning'
p245
I80
sS'runner'
p246
I1
sS'mind'
p247
I1
sS'fandom'
p248
I6
sS'talking'
p249
I7
sS'seen'
p250
I94
sS'seem'
p251
I1
sS'tells'
p252
I1
sS'wholesome'
p253
I1
sS'allegedly'
p254
I1
sS'latter'
p255
I1
sS'subjects'
p256
I1
sS'derek'
p257
I1
sS'doors'
p258
I1
sS'laughed'
p259
I80
sS'grips'
p260
I1
sS'panties'
p261
I1
sS'rides'
p262
I1
sS'though'
p263
I29
sS'tye'
p264
I80
sS'anatomy'
p265
I1
sS'involving'
p266
I1
sS'mouth'
p267
I3
sS'letter'
p268
I1
sS'phase'
p269
I1
sS'thriller'
p270
I1
sS'alarm'
p271
I1
sS'camp'
p272
I1
sS'm'
p273
I3
sS'definitely'
p274
I2
sS'tech'
p275
I1
sS'left'
p276
I166
sS'sum'
p277
I1
sS'came'
p278
I3
sS'marvel'
p279
I2
sS'saying'
p280
I6
sS'random'
p281
I1
sS'ending'
p282
I2
sS'radio'
p283
I1
sS'queer'
p284
I2
sS'enjoyed'
p285
I8
sS'spite'
p286
I1
sS'cousins'
p287
I1
sS'weekends'
p288
I1
sS'acne'
p289
I80
sS'theme'
p290
I9
sS'crashand'
p291
I1
sS'screening'
p292
I1
sS'rice'
p293
I1
sS'indepth'
p294
I1
sS'do'
p295
I16
sS'kaka'
p296
I1
sS'stop'
p297
I3
sS'television'
p298
I1
sS'da'
p299
I2000
sS'pocket'
p300
I2
sS'watson'
p301
I2
sS'haunted'
p302
I1
sS'altogether'
p303
I1
sS'hall'
p304
I1
sS'runs'
p305
I1
sS'chronological'
p306
I1
sS'nicely'
p307
I1
sS'officially'
p308
I5
sS'calledharry'
p309
I1
sS'twice'
p310
I1
sS'bad'
p311
I8
sS'ban'
p312
I3
sS'freaginlove'
p313
I1
sS'wiccans'
p314
I1
sS'optimus'
p315
I1
sS'decides'
p316
I1
sS'fair'
p317
I1
sS'decided'
p318
I4
sS'hero'
p319
I2
sS'best'
p320
I15
sS'brazil'
p321
I1
sS'said'
p322
I92
sS'inappropriate'
p323
I1
sS'lotr'
p324
I1
sS'away'
p325
I1
sS'rings'
p326
I5
sS'score'
p327
I2
sS'hopefully'
p328
I2
sS'drawn'
p329
I1
sS'codethemed'
p330
I1
sS'shields'
p331
I1
sS'lazy'
p332
I1
sS'lamas'
p333
I1
sS'omg'
p334
I4
sS'nature'
p335
I1
sS'rolled'
p336
I1
sS'however'
p337
I1
sS'extent'
p338
I1
sS'news'
p339
I5
sS'fanfic'
p340
I2
sS'cos'
p341
I1
sS'cow'
p342
I1
sS'fault'
p343
I2
sS'ill'
p344
I10
sS'coz'
p345
I80
sS'jelly'
p346
I1
sS'against'
p347
I2
sS'kattun'
p348
I1
sS'games'
p349
I1
sS'planned'
p350
I1
sS'urls'
p351
I1
sS'character'
p352
I82
sS'blonds'
p353
I80
sS'mcphee'
p354
I1
sS'awesomely'
p355
I1
sS'tons'
p356
I1
sS'angel'
p357
I1
sS'asks'
p358
I1
sS'three'
p359
I9
sS'tiny'
p360
I1
sS'fowl'
p361
I1
sS'much'
p362
I452
sS'interest'
p363
I1
sS'basic'
p364
I1
sS'expected'
p365
I2
sS'kelse'
p366
I1
sS'threw'
p367
I1
sS'life'
p368
I8
sS'families'
p369
I1
sS'coherent'
p370
I1
sS'kudos'
p371
I1
sS'personally'
p372
I5
sS'catch'
p373
I2
sS'spin'
p374
I1
sS'exception'
p375
I1
sS'has'
p376
I12
sS'publicly'
p377
I1
sS'bobbypin'
p378
I80
sS'hat'
p379
I81
sS'fallon'
p380
I1
sS'n'
p381
I2
sS'near'
p382
I1
sS'suppose'
p383
I2
sS'depp'
p384
I1
sS'appeals'
p385
I1
sS'k'
p386
I2
sS'mpreg'
p387
I1
sS'played'
p388
I4
sS'iq'
p389
I1
sS'is'
p390
I1518
sS'libresucked'
p391
I1
sS'it'
p392
I720
sS'audrey'
p393
I3
sS'shame'
p394
I1
sS'cant'
p395
I91
sS'im'
p396
I40
sS'in'
p397
I175
sS'faked'
p398
I1
sS'id'
p399
I10
sS'if'
p400
I195
sS'grown'
p401
I1
sS'colfer'
p402
I1
sS'things'
p403
I93
sS'make'
p404
I84
sS'clearly'
p405
I1
sS'complex'
p406
I1
sS'unfortunate'
p407
I1
sS'big'
p408
I97
sS'success'
p409
I1
sS'showing'
p410
I2
sS'definately'
p411
I2
sS'entitled'
p412
I1
sS'hank'
p413
I1
sS'independent'
p414
I1
sS'finshed'
p415
I1
sS'evil'
p416
I32
sS'hand'
p417
I2
sS'action'
p418
I9
sS'characters'
p419
I1
sS'supper'
p420
I1
sS'thoughts'
p421
I1
sS'kid'
p422
I2
sS'mckellen'
p423
I1
sS'postponed'
p424
I1
sS'kept'
p425
I1
sS'scenario'
p426
I1
sS'shitty'
p427
I4
sS'youre'
p428
I6
sS'tho'
p429
I2
sS'mother'
p430
I3
sS'the'
p431
I3223
sS'smoked'
p432
I1
sS'booksnot'
p433
I1
sS'dads'
p434
I80
sS'outnumbered'
p435
I1
sS'just'
p436
I287
sS'yea'
p437
I2
sS'greys'
p438
I1
sS'gaither'
p439
I2
sS'thanks'
p440
I1
sS'yes'
p441
I4
sS'yet'
p442
I8
sS'ossanathe'
p443
I1
sS'had'
p444
I23
sS'clarksville'
p445
I1
sS'shout'
p446
I1
sS'board'
p447
I4
sS'easy'
p448
I1
sS'save'
p449
I1
sS'codethat'
p450
I1
sS'azkaban.goblet'
p451
I1
sS'possible'
p452
I1
sS'possibly'
p453
I1
sS'indicative'
p454
I1
sS'background'
p455
I1
sS'lynne'
p456
I1
sS'burnt'
p457
I1
sS'apart'
p458
I1
sS'gift'
p459
I3
sS'festivities'
p460
I1
sS'avatar'
p461
I1
sS'night'
p462
I9
sS'hung'
p463
I80
sS'ennis'
p464
I1
sS'overslept'
p465
I1
sS'bonkers'
p466
I80
sS'portuguese'
p467
I1
sS'right'
p468
I249
sS'old'
p469
I2
sS'deal'
p470
I3
sS'people'
p471
I183
sS'creed'
p472
I1
sS'sure'
p473
I7
sS'humor'
p474
I1
sS'for'
p475
I241
sS'cussler'
p476
I1
sS'comments'
p477
I1
sS'everything'
p478
I2
sS'asking'
p479
I2
sS'conquering'
p480
I2
sS'beating'
p481
I1
sS'adorable'
p482
I2
sS'christmas'
p483
I3
sS'theological'
p484
I1
sS'starring'
p485
I1
sS'post'
p486
I1
sS'super'
p487
I2
sS'wept'
p488
I1
sS'luau'
p489
I1
sS'months'
p490
I2
sS'o'
p491
I1
sS'dinner'
p492
I1
sS'plus'
p493
I1
sS'anime'
p494
I1
sS'rockhard'
p495
I80
sS'EMO_NEG'
p496
I3
sS'bound'
p497
I1
sS'intellectual'
p498
I1
sS'down'
p499
I322
sS'freshman'
p500
I1
sS'explain'
p501
I1
sS'raises'
p502
I1
sS'jenn'
p503
I1
sS'rant'
p504
I3
sS'strangely'
p505
I2
sS'despised'
p506
I80
sS'amazingly'
p507
I1
sS'tennis'
p508
I1
sS'waa'
p509
I1
sS'class'
p510
I2
sS'virgin'
p511
I80
sS'editor'
p512
I1
sS'way'
p513
I101
sS'jane'
p514
I80
sS'quirky'
p515
I1
sS'was'
p516
I1175
sS'halls'
p517
I1
sS'happy'
p518
I2
sS'head'
p519
I81
sS'hatedthe'
p520
I1
sS'form'
p521
I1
sS'becoming'
p522
I81
sS'fireworks'
p523
I2
sS'backtory'
p524
I1
sS'hear'
p525
I5
sS'true'
p526
I3
sS'eragons'
p527
I1
sS'especially'
p528
I3
sS'happen'
p529
I1
sS'versions'
p530
I1
sS'inside'
p531
I1
sS'attached'
p532
I1
sS'ruined'
p533
I2
sS'crystal'
p534
I1
sS'adore'
p535
I1
sS'daddy'
p536
I1
sS'proud'
p537
I2
sS'liberal'
p538
I1
sS'believably'
p539
I1
sS'classic'
p540
I1
sS'tournament'
p541
I1
sS'sale'
p542
I1
sS'sometime'
p543
I1
sS'check'
p544
I1
sS'shit'
p545
I9
sS'no'
p546
I14
sS'whereas'
p547
I1
sS'generally'
p548
I2
sS'actor'
p549
I2
sS'reality'
p550
I81
sS'youand'
p551
I1
sS'setting'
p552
I1
sS'holding'
p553
I1
sS'becuase'
p554
I1
sS'nt'
p555
I2
sS'picture'
p556
I6
sS'phoenix'
p557
I1
sS'dies'
p558
I81
sS'felt'
p559
I3
sS'update'
p560
I3
sS'trailers'
p561
I2
sS'fell'
p562
I4
sS'spy'
p563
I1
sS'weekend'
p564
I2
sS'stinkin'
p565
I1
sS'explosions'
p566
I1
sS'jones'
p567
I1
sS'younger'
p568
I1
sS'longer'
p569
I1
sS'phone'
p570
I1
sS'together'
p571
I2
sS'time'
p572
I99
sS'serious'
p573
I80
sS'backward'
p574
I1
sS'songs'
p575
I1
sS'ron'
p576
I2
sS'dance'
p577
I2
sS'smokinghad'
p578
I1
sS'fabricated'
p579
I1
sS'laura'
p580
I1
sS'theaters'
p581
I2
sS'skin'
p582
I1
sS'row'
p583
I1
sS'fire.i'
p584
I1
sS'finally'
p585
I4
sS'watched10'
p586
I1
sS'brown'
p587
I2
sS'choice'
p588
I2
sS'oversimplifying'
p589
I1
sS'chunnel'
p590
I1
sS'cool'
p591
I86
sS'dim'
p592
I1
sS'impressive'
p593
I1
sS'level'
p594
I3
sS'did'
p595
I25
sS'die'
p596
I2
sS'davinci'
p597
I1
sS'posts'
p598
I1
sS'gun'
p599
I3
sS'hooray'
p600
I1
sS'p'
p601
I1
sS'planning'
p602
I1
sS'team'
p603
I1
sS'quick'
p604
I1
sS'guy'
p605
I163
sS'novels'
p606
I1
sS'yall'
p607
I2
sS'unexpected'
p608
I1
sS'says'
p609
I85
sS'geek'
p610
I2
sS'prediction'
p611
I1
sS'eating'
p612
I2
sS'theories'
p613
I1
sS'dogfucking'
p614
I1
sS'deluded'
p615
I1
sS'axes'
p616
I1
sS'goes'
p617
I1
sS'reply'
p618
I2
sS'appeal'
p619
I1
sS'hairy'
p620
I1
sS'supporting'
p621
I1
sS'stone.chamber'
p622
I1
sS'v'
p623
I1
sS'along'
p624
I3
sS'teaches'
p625
I2
sS'change'
p626
I1
sS'wait'
p627
I88
sS'brilliant'
p628
I2
sS'wherever'
p629
I1
sS'timings'
p630
I1
sS'teevee'
p631
I1
sS'bangs'
p632
I2
sS'usually'
p633
I1
sS'weird'
p634
I1
sS'love'
p635
I1543
sS'defensive'
p636
I1
sS'suicides'
p637
I80
sS'shipmates'
p638
I1
sS'everybody'
p639
I1
sS'working'
p640
I2
sS'leah'
p641
I80
sS'france'
p642
I1
sS'live'
p643
I3
sS'wondering'
p644
I3
sS'films'
p645
I4
sS'angels'
p646
I5
sS'today'
p647
I2
sS'wicked'
p648
I1
sS'abrams'
p649
I1
sS'club'
p650
I4
sS'acceptable'
p651
I81
sS'ignorant'
p652
I1
sS'effort'
p653
I1
sS'involve'
p654
I1
sS'shraddha'
p655
I1
sS'douche'
p656
I2
sS'anything'
p657
I7
sS'cowboy'
p658
I81
sS'abortion'
p659
I1
sS'soul'
p660
I2
sS'reviews'
p661
I1
sS'can'
p662
I107
sS'following'
p663
I1
sS'making'
p664
I88
sS'lords'
p665
I2
sS'dedicated'
p666
I1
sS'figure'
p667
I1
sS'concocted'
p668
I1
sS'awesome'
p669
I1125
sS'fuck'
p670
I4
sS'topic'
p671
I1
sS'heard'
p672
I97
sS'drowining'
p673
I1
sS'burbank'
p674
I1
sS'offense'
p675
I1
sS'counting'
p676
I1
sS'craze'
p677
I2
sS'listens'
p678
I1
sS'pink'
p679
I1
sS'scar'
p680
I2
sS'winter'
p681
I1
sS'ideas'
p682
I1
sS'watching'
p683
I89
sS'write'
p684
I3
sS'till'
p685
I2
sS'sunday'
p686
I1
sS'beans'
p687
I2
sS'absolute'
p688
I1
sS'staying'
p689
I1
sS'cocktail'
p690
I2
sS'may'
p691
I12
sS'heartbreaking'
p692
I1
sS'mad'
p693
I1
sS'date'
p694
I1
sS'such'
p695
I93
sS'suck'
p696
I276
sS'guys'
p697
I3
sS'grow'
p698
I1
sS'unbelievably'
p699
I2
sS'man'
p700
I89
sS'poseidon'
p701
I1
sS'omen'
p702
I1
sS'whenever'
p703
I2
sS'maybe'
p704
I2
sS'majorly'
p705
I4
sS'tale'
p706
I2
sS'so'
p707
I506
sS'basket'
p708
I1
sS'manga'
p709
I1
sS'talk'
p710
I9
sS'cute'
p711
I2
sS'shoes'
p712
I2
sS'barnyard'
p713
I1
sS'haircut'
p714
I1
sS'midnight'
p715
I1
sS'professors'
p716
I1
sS'course'
p717
I7
sS'kanye'
p718
I1
sS'cold'
p719
I2
sS'still'
p720
I100
sS'group'
p721
I1
sS'thank'
p722
I3
sS'interesting'
p723
I7
sS'hot'
p724
I2
sS'attraction'
p725
I1
sS'hanks'
p726
I2
sS'main'
p727
I82
sS'happened'
p728
I1
sS'conversations'
p729
I1
sS'jame'
p730
I1
sS'sarcastic'
p731
I1
sS'lunch'
p732
I1
sS'touching'
p733
I1
sS'soo'
p734
I86
sS'half'
p735
I4
sS'not'
p736
I197
sS'now'
p737
I21
sS'twilight'
p738
I1
sS'discuss'
p739
I1
sS'nor'
p740
I2
sS'wont'
p741
I2
sS'name'
p742
I2
sS'teri'
p743
I1
sS'intrigued'
p744
I1
sS'heresies'
p745
I1
sS'showcasing'
p746
I1
sS'eh'
p747
I1
sS'yeah'
p748
I90
sS'year'
p749
I6
sS'et'
p750
I1
sS'ew'
p751
I1
sS'living'
p752
I1
sS'jackson'
p753
I1
sS'opened'
p754
I2
sS'ultimatly'
p755
I1
sS'looking'
p756
I3
sS'seriously'
p757
I1
sS'christain'
p758
I1
sS'correct'
p759
I1
sS'shows'
p760
I3
sS'goth'
p761
I2
sS'joiners'
p762
I1
sS'cars'
p763
I1
sS'bootlegged'
p764
I1
sS'million'
p765
I1
sS'quite'
p766
I6
sS'besides'
p767
I3
sS'brooke'
p768
I1
sS'care'
p769
I82
sS'discussing'
p770
I1
sS'honest'
p771
I1
sS'turn'
p772
I2
sS'place'
p773
I83
sS'heteronormativity'
p774
I1
sS'brokeback'
p775
I1996
sS'motherfuckers'
p776
I1
sS'waited'
p777
I1
sS'first'
p778
I104
sS'halle'
p779
I1
sS'dungeons'
p780
I1
sS'rachel'
p781
I1
sS'potter'
p782
I2091
sS'xd'
p783
I1
sS'one'
p784
I283
sS'ony'
p785
I1
sS'specifically'
p786
I1
sS'spanish'
p787
I1
sS'impossible'
p788
I1091
sS'sounds'
p789
I2
sS'drove'
p790
I1
sS'open'
p791
I1
sS'tomorrow'
p792
I1
sS'ripping'
p793
I1
sS'rented'
p794
I2
sS'given'
p795
I3
sS'ian'
p796
I1
sS'wussies'
p797
I1
sS'silent'
p798
I80
sS'plastic'
p799
I1
sS'anyone'
p800
I85
sS'gyllenhaal'
p801
I1
sS'tragic'
p802
I2
sS'yip'
p803
I1
sS'white'
p804
I2
sS'bits'
p805
I1
sS'independant'
p806
I1
sS'speaking'
p807
I2
sS'gives'
p808
I1
sS'anus'
p809
I1
sS'eyes'
p810
I1
sS'mostly'
p811
I1
sS'that'
p812
I712
sS'weell'
p813
I1
sS'indoctrinate'
p814
I1
sS'huh'
p815
I1
sS'ridiculous'
p816
I1
sS'butt'
p817
I2
sS'copy'
p818
I2
sS'undoubtedly'
p819
I1
sS'than'
p820
I14
sS'infiltrate'
p821
I1
sS'wide'
p822
I1
sS'malaguena'
p823
I1
sS'unfortunately'
p824
I1
sS'gotta'
p825
I4
sS'war'
p826
I1
sS'future'
p827
I2
sS'were'
p828
I177
sS'asleep'
p829
I2
sS'dissapointed'
p830
I1
sS'and'
p831
I2152
sS'ang'
p832
I2
sS'sam'
p833
I1
sS'carsgood'
p834
I1
sS'turned'
p835
I81
sS'slap'
p836
I80
sS'sad'
p837
I12
sS'dash'
p838
I80
sS'eoin'
p839
I1
sS'say'
p840
I24
sS'rent'
p841
I3
sS'turner'
p842
I1
sS'saw'
p843
I106
sS'any'
p844
I3
sS'superman'
p845
I1
sS'astonishingly'
p846
I1
sS'chessboard'
p847
I1
sS'aside'
p848
I1
sS'note'
p849
I1
sS'take'
p850
I84
sS'online'
p851
I1
sS'performance'
p852
I1
sS'impossible3'
p853
I1
sS'begin'
p854
I81
sS'hoover'
p855
I2
sS'rereading'
p856
I3
sS'normal'
p857
I2
sS'track'
p858
I1
sS'erins'
p859
I1
sS'knew'
p860
I2
sS'rehearsal'
p861
I1
sS'horridly'
p862
I1
sS'complaints'
p863
I1
sS'america'
p864
I1
sS'pages'
p865
I3
sS'queens'
p866
I1
sS'forever'
p867
I1
sS'sivullinen'
p868
I2
sS'wacked'
p869
I1
sS'considered'
p870
I1
sS'dream'
p871
I2
sS'later'
p872
I1
sS'drive'
p873
I2
sS'mrs'
p874
I2
sS'potterholic'
p875
I1
sS'shop'
p876
I1
sS'show'
p877
I5
sS'german'
p878
I1
sS'cheap'
p879
I1
sS'discovered'
p880
I1
sS'ground'
p881
I1
sS'aint'
p882
I1
sS'slow'
p883
I1
sS'dick'
p884
I1
sS'cloak'
p885
I1
sS'only'
p886
I175
sS'going'
p887
I96
sS'black'
p888
I80
sS'robe'
p889
I1
sS'requim'
p890
I1
sS'beatles'
p891
I1
sS'exaggeration'
p892
I1
sS'get'
p893
I20
sS'mormon'
p894
I1
sS'freezing'
p895
I1
sS'truly'
p896
I1
sS'cannot'
p897
I1
sS'nearly'
p898
I4
sS'hedge'
p899
I3
sS'freaking'
p900
I6
sS'prime'
p901
I1
sS'oceanwalk'
p902
I1
sS'lame'
p903
I4
sS'washarry'
p904
I1
sS'jokes'
p905
I81
sS'stupid'
p906
I365
sS'through'
p907
I5
sS'where'
p908
I83
sS'husband'
p909
I1
sS'picnic'
p910
I1
sS'hour'
p911
I1
sS'mtv'
p912
I80
sS'college'
p913
I3
sS'anyways'
p914
I3
sS'sceneries'
p915
I1
sS'um'
p916
I1
sS'review'
p917
I82
sS'wests'
p918
I1
sS'folows'
p919
I1
sS'between'
p920
I3
sS'enjoys'
p921
I1
sS'reading'
p922
I179
sS'moives'
p923
I1
sS'blame'
p924
I2
sS'awards'
p925
I81
sS'article'
p926
I2
sS'bigtime'
p927
I1
sS'come'
p928
I4
sS'kirsten'
p929
I80
sS'reaction'
p930
I2
sS'missions'
p931
I1
sS'many'
p932
I3
sS'stupidest'
p933
I1
sS'according'
p934
I1
sS's'
p935
I84
sS'mang'
p936
I1
sS'franchise'
p937
I2
sS'comes'
p938
I4
sS'afterwards'
p939
I1
sS'mountainhard'
p940
I1
sS'characterization'
p941
I1
sS'color'
p942
I2
sS'shatteredspine'
p943
I1
sS'colony'
p944
I1
sS'period'
p945
I1
sS'pop'
p946
I2
sS'homosexuality'
p947
I80
sS'writing'
p948
I2
sS'runaway'
p949
I1
sS'rickards'
p950
I1
sS'howard'
p951
I1
sS'barry'
p952
I1
sS'vacation'
p953
I1
sS'judging'
p954
I1
sS'mary'
p955
I1
sS'marisa'
p956
I1
sS'wants'
p957
I1
sS'shopping'
p958
I1
sS'robbed'
p959
I2
sS'thousand'
p960
I2
sS'formed'
p961
I2
sS'mocking'
p962
I1
sS'felicias'
p963
I80
sS'dramatic'
p964
I1
sS'hardcore'
p965
I2
sS'those'
p966
I10
sS'case'
p967
I3
sS'myself'
p968
I3
sS'these'
p969
I87
sS'wellexecuted'
p970
I1
sS'admired'
p971
I1
sS'cast'
p972
I1
sS'dorks'
p973
I1
sS'irrespective'
p974
I1
sS'cock'
p975
I85
sS'ive'
p976
I13
sS'aniwae'
p977
I1
sS'middle'
p978
I1
sS'pressing'
p979
I1
sS'whimpering'
p980
I80
sS'obnoxious'
p981
I2
sS'different'
p982
I4
sS'author'
p983
I2
sS'media'
p984
I1
sS'combonation'
p985
I1
sS'tour'
p986
I1
sS'same'
p987
I87
sS'trip'
p988
I1
sS'ya'
p989
I2
sS'arguments'
p990
I1
sS'events'
p991
I2
sS'homophobic'
p992
I1
sS'week'
p993
I6
sS'visually'
p994
I1
sS'finish'
p995
I1
sS'enjoyment'
p996
I1
sS'director'
p997
I1
sS'halfblood'
p998
I2
sS'totally'
p999
I7
sS'awesomeness'
p1000
I2
sS'theater'
p1001
I5
sS'amazes'
p1002
I1
sS'magical'
p1003
I1
sS'nothin'
p1004
I1
sS'without'
p1005
I1
sS'shameful'
p1006
I1
sS'summer'
p1007
I1
sS'being'
p1008
I168
sS'money'
p1009
I5
sS'shadeslayer'
p1010
I1
sS'rest'
p1011
I2
sS'personaly'
p1012
I1
sS'kill'
p1013
I1
sS'harrison'
p1014
I1
sS'halfway'
p1015
I1
sS'japenese'
p1016
I1
sS'death'
p1017
I3
sS'thinking'
p1018
I7
sS'seems'
p1019
I1
sS'except'
p1020
I3
sS'blog'
p1021
I1
sS'lets'
p1022
I2
sS'interested'
p1023
I1
sS'association'
p1024
I1
sS'versa'
p1025
I1
sS'dicks'
p1026
I1
sS'real'
p1027
I9
sS'jake'
p1028
I3
sS'around'
p1029
I85
sS'codeit'
p1030
I1
sS'read'
p1031
I113
sS'offence'
p1032
I1
sS'mountainthis'
p1033
I1
sS'gonna'
p1034
I81
sS'dart'
p1035
I1
sS'thirdlythe'
p1036
I1
sS'simmons'
p1037
I1
sS'mom'
p1038
I83
sS'world'
p1039
I7
sS'boycotted'
p1040
I1
sS'disappointed'
p1041
I1
sS'oddly'
p1042
I1
sS'facing'
p1043
I1
sS'trulyawful'
p1044
I1
sS'benefit'
p1045
I1
sS'either'
p1046
I83
sS'always'
p1047
I86
sS'witchcraft'
p1048
I2
sS'draw'
p1049
I2
sS'cowboys'
p1050
I6
sS'images'
p1051
I1
sS'joan'
p1052
I1
sS'thinks'
p1053
I2
sS'caribbean'
p1054
I1
sS'mood'
p1055
I1
sS'brigid'
p1056
I1
sS'biased'
p1057
I2
sS'power'
p1058
I1
sS'sixth'
p1059
I1
sS'loudest'
p1060
I1
sS'standpoint'
p1061
I1
sS'exciting'
p1062
I1
sS'throw'
p1063
I1
sS'on'
p1064
I116
sS'stone'
p1065
I2
sS'ok'
p1066
I163
sS'oh'
p1067
I170
sS'of'
p1068
I424
sS'industry'
p1069
I2
sS'discussed'
p1070
I1
sS'stand'
p1071
I81
sS'bond'
p1072
I1
sS'or'
p1073
I263
sS'protests'
p1074
I1
sS'image'
p1075
I1
sS'strip'
p1076
I1
sS'your'
p1077
I9
sS'het'
p1078
I2
sS'legacy'
p1079
I1
sS'her'
p1080
I4
sS'hes'
p1081
I81
sS'immensely'
p1082
I1
sS'there'
p1083
I92
sS'racism'
p1084
I3
sS'lol'
p1085
I13
sS'christianity'
p1086
I1
sS'diana'
p1087
I1
sS'mindless'
p1088
I1
sS'low'
p1089
I1
sS'lot'
p1090
I22
sS'cultures'
p1091
I1
sS'relic'
p1092
I1
sS'enough'
p1093
I2
sS'delayed'
p1094
I1
sS'excersizing'
p1095
I1
sS'police'
p1096
I1
sS'philosophers'
p1097
I1
sS'with'
p1098
I288
sS'pull'
p1099
I1
sS'romantic'
p1100
I1
sS'rowling'
p1101
I2
sS'agree'
p1102
I3
sS'seymore'
p1103
I1
sS'johnny'
p1104
I2
sS'cinema'
p1105
I1
sS'exhausted'
p1106
I1
sS'ah'
p1107
I1
sS'combining'
p1108
I80
sS'am'
p1109
I259
sS'al'
p1110
I1
sS'deep'
p1111
I80
sS'an'
p1112
I225
sS'cobequid'
p1113
I1
sS'ap'
p1114
I1
sS'as'
p1115
I473
sS'at'
p1116
I110
sS'walks'
p1117
I1
sS'politics'
p1118
I2
sS'sawyer'
p1119
I1
sS'nerd'
p1120
I2
sS'film'
p1121
I96
sS'fill'
p1122
I1
sS'again'
p1123
I88
sS'genres'
p1124
I1
sS'heather'
p1125
I1
sS'idiot'
p1126
I1
sS'nc17'
p1127
I3
sS'field'
p1128
I1
sS'friggin'
p1129
I1
sS'you'
p1130
I324
sS'requested'
p1131
I2
sS'briefly'
p1132
I1
sS'finale'
p1133
I1
sS'important'
p1134
I1
sS'included'
p1135
I1
sS'finals'
p1136
I1
sS'calls'
p1137
I1
sS'degraw'
p1138
I1
sS'having'
p1139
I8
sS'u'
p1140
I2
sS'saidharry'
p1141
I1
sS'god'
p1142
I6
sS'alright'
p1143
I1
sS'starting'
p1144
I1
sS'all'
p1145
I36
sS'consider'
p1146
I1
sS'chinese'
p1147
I2
sS'messy'
p1148
I1
sS'religious'
p1149
I3
sS'children'
p1150
I1
sS'emily'
p1151
I1
sS'icons'
p1152
I2
sS'tv'
p1153
I2
sS'laid'
p1154
I2
sS'thursday'
p1155
I1
sS'to'
p1156
I808
sS'aaron'
p1157
I2
sS'danielle'
p1158
I1
sS'th'
p1159
I1
sS'ti'
p1160
I1
sS'royally'
p1161
I2
sS'tc'
p1162
I2
sS'esther'
p1163
I1
sS'worse'
p1164
I1
sS'returning'
p1165
I1
sS'very'
p1166
I18
sS'mph'
p1167
I1
sS'coloured'
p1168
I1
sS'novel'
p1169
I5
sS'worst'
p1170
I1
sS'decide'
p1171
I1
sS'fall'
p1172
I2
sS'awful'
p1173
I13
sS'ticket'
p1174
I2
sS'surprised'
p1175
I1
sS'leads'
p1176
I1
sS'mothers'
p1177
I2
sS'storytimes'
p1178
I1
sS'anax'
p1179
I1
sS'harry'
p1180
I2088
sS'small'
p1181
I1
sS'flick'
p1182
I2
sS'ten'
p1183
I3
sS'tea'
p1184
I2
sS'grabs'
p1185
I80
sS'past'
p1186
I81
sS'gn'
p1187
I1
sS'creatures'
p1188
I1
sS'what'
p1189
I96
sS'darkness'
p1190
I1
sS'richard'
p1191
I1
sS'section'
p1192
I1
sS'apologized'
p1193
I1
sS'nans'
p1194
I1
sS'public'
p1195
I1
sS'full'
p1196
I2
sS'christian'
p1197
I2
sS'loose'
p1198
I1
sS'answers'
p1199
I1
sS'hours'
p1200
I1
sS'vals'
p1201
I1
sS'table'
p1202
I81
sS'search'
p1203
I1
sS'bible'
p1204
I2
sS'inspired'
p1205
I1
sS'experience'
p1206
I1
sS'whiny'
p1207
I1
sS'arent'
p1208
I1
sS'himi'
p1209
I1
sS'impossibletom'
p1210
I1
sS'luck'
p1211
I4
sS'screens'
p1212
I1
sS'semester'
p1213
I1
sS'aimee'
p1214
I1
sS'thought'
p1215
I102
sS'gosh'
p1216
I1
sS'shiti'
p1217
I1
sS'eye'
p1218
I1
sS'takes'
p1219
I2
sS'intense'
p1220
I1
sS'contains'
p1221
I1
sS'two'
p1222
I12
sS'transamerica'
p1223
I1
sS'gorgeous'
p1224
I3
sS'more'
p1225
I103
sS'horses'
p1226
I1
sS'flat'
p1227
I1
sS'yuck'
p1228
I1
sS'knows'
p1229
I83
sS'hoffman'
p1230
I2
sS'basically'
p1231
I1
sS'broke'
p1232
I1
sS'storyi'
p1233
I1
sS'fanfiction'
p1234
I3
sS'glad'
p1235
I7
sS'luv'
p1236
I82
sS'town'
p1237
I1
sS'none'
p1238
I3
sS'debates'
p1239
I1
sS'sucky'
p1240
I1
sS'canceled'
p1241
I1
sS'phillip'
p1242
I2
sS'sentry'
p1243
I80
sS'sucks'
p1244
I600
sS'kickass'
p1245
I1
sS'mall'
p1246
I1
sS'hermione'
p1247
I1
sS'learn'
p1248
I1
sS'beautiful'
p1249
I127
sS'casanova'
p1250
I1
sS'atrocious'
p1251
I1
sS'memoirs'
p1252
I1
sS'psbrokeback'
p1253
I1
sS'share'
p1254
I1
sS'boycott'
p1255
I1
sS'childrens'
p1256
I3
sS'sense'
p1257
I2
sS'phrase'
p1258
I1
sS'disliked'
p1259
I3
sS'dress'
p1260
I1
sS'melandry'
p1261
I1
sS'huge'
p1262
I1
sS'needs'
p1263
I81
sS'bookda'
p1264
I1
sS'awkward'
p1265
I1
sS'rather'
p1266
I3
sS'hugh'
p1267
I1
sS'codeillustrated'
p1268
I1
sS'stayed'
p1269
I3
sS'hahash'
p1270
I1
sS'scifi'
p1271
I1
sS'browns'
p1272
I1
sS'explains'
p1273
I1
sS'creature'
p1274
I1
sS'mybutthole'
p1275
I1
sS'fr'
p1276
I1
sS'okay'
p1277
I6
sS'tried'
p1278
I2
sS'soundtrack'
p1279
I1
sS'spectacularly'
p1280
I1
sS'coming'
p1281
I2
sS'gasp'
p1282
I1
sS'a'
p1283
I1305
sS'russotti'
p1284
I1
sS'short'
p1285
I3
sS'shade'
p1286
I1
sS'putting'
p1287
I2
sS'egg'
p1288
I2
sS'playing'
p1289
I3
sS'travel'
p1290
I1
sS'reminded'
p1291
I80
sS'soon'
p1292
I2
sS'isnt'
p1293
I3
sS'paper'
p1294
I1
sS'itz'
p1295
I1
sS'signs'
p1296
I1
sS'hell'
p1297
I3
sS'sequels'
p1298
I1
sS'its'
p1299
I196
sS'style'
p1300
I1
sS'picard'
p1301
I2
sS'actually'
p1302
I14
sS'capote'
p1303
I2
sS'ruining'
p1304
I1
sS'nifty'
p1305
I1
sS'bout'
p1306
I1
sS'might'
p1307
I6
sS'partyin'
p1308
I1
sS'someone'
p1309
I4
sS'sucking'
p1310
I6
sS'seeking'
p1311
I1
sS'food'
p1312
I4
sS'mountainbeautiful'
p1313
I1
sS'hahahahahaha'
p1314
I1
sS'sweeping'
p1315
I1
sS'subtitles'
p1316
I1
sS'sucked'
p1317
I597
sS'desperately'
p1318
I80
sS'everytime'
p1319
I1
sS'fully'
p1320
I1
sS'presented'
p1321
I1
sS'bless'
p1322
I1
sS'stopped'
p1323
I2
sS'found'
p1324
I1
sS'exquisite'
p1325
I2
sS'heavy'
p1326
I1
sS'everyone'
p1327
I9
sS'england'
p1328
I1
sS'pirates'
p1329
I1
sS'house'
p1330
I2
sS'energy'
p1331
I1
sS'hard'
p1332
I3
sS'idea'
p1333
I4
sS'brother'
p1334
I1
sS'pirated'
p1335
I1
sS'tonite'
p1336
I1
sS'tiffani'
p1337
I1
sS'beyond'
p1338
I1
sS'insurance'
p1339
I1
sS'really'
p1340
I374
sS'deals'
p1341
I1
sS'psychology'
p1342
I1
sS'wondered'
p1343
I1
sS'marcia'
p1344
I2
sS'since'
p1345
I12
sS'acting'
p1346
I2
sS'health'
p1347
I1
sS'hill'
p1348
I80
sS'ass'
p1349
I30
sS'fiber'
p1350
I1
sS'springers'
p1351
I1
sS'homophobes'
p1352
I1
sS'friday'
p1353
I86
sS'dementors'
p1354
I2
sS'reason'
p1355
I1
sS'imagine'
p1356
I1
sS'ask'
p1357
I3
sS'wiccanism'
p1358
I2
sS'terrible'
p1359
I174
sS'exponentially'
p1360
I1
sS'w'
p1361
I1
sS'corrupting'
p1362
I1
sS'major'
p1363
I4
sS'dont'
p1364
I103
sS'feel'
p1365
I7
sS'talked'
p1366
I1
sS'done'
p1367
I1
sS'miss'
p1368
I10
sS'story'
p1369
I170
sS'dumbledor'
p1370
I1
sS'least'
p1371
I5
sS'station'
p1372
I80
sS'settin'
p1373
I1
sS'master'
p1374
I1
sS'challenge'
p1375
I2
sS'tomkat'
p1376
I1
sS'jamie'
p1377
I1
sS'park'
p1378
I1
sS'part'
p1379
I4
sS'believe'
p1380
I1
sS'kind'
p1381
I5
sS'b'
p1382
I82
sS'picturesque'
p1383
I1
sS'supposed'
p1384
I1
sS'deciding'
p1385
I1
sS'outta'
p1386
I1
sS'wasnt'
p1387
I4
sS'juicy'
p1388
I1
sS'demeantor'
p1389
I1
sS'mountain'
p1390
I1994
sS'escapades'
p1391
I80
sS'lil'
p1392
I1
sS'hedgegood'
p1393
I1
sS'lin'
p1394
I1
sS'lit'
p1395
I3
sS'also'
p1396
I118
sS'useless'
p1397
I1
sS'yeahi'
p1398
I1
sS'play'
p1399
I2
sS'openmindedness'
p1400
I1
sS'react'
p1401
I1
sS'most'
p1402
I102
sS'nothing'
p1403
I3
sS'boycotting'
p1404
I1
sS'extremely'
p1405
I3
sS'sometimes'
p1406
I2
sS'cover'
p1407
I1
sS'gin'
p1408
I80
sS'artemis'
p1409
I1
sS'clean'
p1410
I1
sS'condeming'
p1411
I1
sS'dragged'
p1412
I80
sS'hips'
p1413
I80
sS'joining'
p1414
I80
sS'ootp'
p1415
I1
sS'phenomenon'
p1416
I1
sS'cruises'
p1417
I1
sS'frodos'
p1418
I1
sS'codesucked'
p1419
I2
sS'hyped'
p1420
I1
sS'carefully'
p1421
I2
sS'find'
p1422
I1
sS'mountainwhich'
p1423
I1
sS'writes'
p1424
I1
sS'writer'
p1425
I1
sS'idiots'
p1426
I1
sS'pretty'
p1427
I31
sS'gayscientologistmission'
p1428
I1
sS'giants'
p1429
I1
sS'cowan'
p1430
I1
sS'his'
p1431
I182
sS'devastate'
p1432
I1
sS'quizzes'
p1433
I2
sS'gavin'
p1434
I1
sS'pretending'
p1435
I1
sS'during'
p1436
I3
sS'him'
p1437
I84
sS'catcher'
p1438
I80
sS'cry'
p1439
I2
sS'witha'
p1440
I1
sS'watched'
p1441
I16
sS'hype'
p1442
I1
sS'x'
p1443
I2
sS'cringe'
p1444
I2
sS'wrote'
p1445
I1
sS'insane'
p1446
I1
sS'body'
p1447
I2
sS'achieved'
p1448
I1
sS'plausible'
p1449
I1
sS'culture'
p1450
I4
sS'see'
p1451
I48
sS'dumb'
p1452
I3
sS'are'
p1453
I202
sS'close'
p1454
I1
sS'mcmurtry'
p1455
I1
sS'probable'
p1456
I1
sS'pictures'
p1457
I2
sS'wow'
p1458
I1
sS'please'
p1459
I2
sS'demons'
p1460
I6
sS'libraries'
p1461
I2
sS'woo'
p1462
I4
sS'won'
p1463
I5
sS'various'
p1464
I1
sS'expo'
p1465
I1
sS'monsters'
p1466
I1
sS'knowing'
p1467
I1
sS'rosie'
p1468
I1
sS'recently'
p1469
I2
sS'iron'
p1470
I1
sS'targeted'
p1471
I1
sS'sold'
p1472
I1
sS'sayingharry'
p1473
I1
sS'ike'
p1474
I1
sS'genre'
p1475
I1
sS'both'
p1476
I89
sS'c'
p1477
I1
sS'last'
p1478
I92
sS'bachelor'
p1479
I1
sS'forgotten'
p1480
I2
sS'vault'
p1481
I1
sS'whole'
p1482
I3
sS'messiah'
p1483
I1
sS'liked'
p1484
I101
sS'emomound'
p1485
I1
sS'point'
p1486
I2
sS'reasons'
p1487
I1
sS'community'
p1488
I82
sS'simply'
p1489
I2
sS'adaptation'
p1490
I1
sS'sing'
p1491
I2
sS'dudee'
p1492
I80
sS'puptent'
p1493
I1
sS'mission'
p1494
I1089
sS'ps'
p1495
I1
sS'worthless'
p1496
I3
sS'devil'
p1497
I1
sS'monthly'
p1498
I1
sS'due'
p1499
I2
sS'whos'
p1500
I81
sS'pc'
p1501
I1
sS'damn'
p1502
I4
sS'meeting'
p1503
I2
sS'empty'
p1504
I2
sS'gay'
p1505
I90
sS'packs'
p1506
I1
sS'fire'
p1507
I4
sS'else'
p1508
I7
sS'whatever'
p1509
I2
sS'lives'
p1510
I1
sS'georgia'
p1511
I4
sS'look'
p1512
I1
sS'straight'
p1513
I1
sS'convo'
p1514
I1
sS'budget'
p1515
I1
sS'while'
p1516
I8
sS'kick'
p1517
I3
sS'fun'
p1518
I84
sS'animated'
p1519
I1
sS'theres'
p1520
I85
sS'suncoast'
p1521
I1
sS'portugal'
p1522
I1
sS'moralistic'
p1523
I1
sS'comparrison'
p1524
I1
sS'scientology'
p1525
I1
sS'disappointing'
p1526
I1
sS'reads'
p1527
I1
sS'itself'
p1528
I1
sS'rid'
p1529
I1
sS'overexagerated'
p1530
I1
sS'exploitation'
p1531
I1
sS'belong'
p1532
I1
sS'rules'
p1533
I1
sS'codevery'
p1534
I1
sS'madly'
p1535
I1
sS'grand'
p1536
I1
sS'day'
p1537
I6
sS'used'
p1538
I5
sS'lie'
p1539
I2
sS'keys'
p1540
I80
sS'yesterday'
p1541
I2
sS'infuser'
p1542
I2
sS'walmart'
p1543
I1
sS'cucumber'
p1544
I1
sS'cleaning'
p1545
I80
sS'lower'
p1546
I1
sS'task'
p1547
I1
sS'picky'
p1548
I1
sS'person'
p1549
I86
sS'chronicles'
p1550
I1
sS'spend'
p1551
I1
sS'vitobeinggay'
p1552
I1
sS'glitz'
p1553
I1
sS'questions'
p1554
I1
sS'mob'
p1555
I1
sS'regardless'
p1556
I1
sS'prince'
p1557
I2
sS'letting'
p1558
I80
sS'cut'
p1559
I2
sS'goblet'
p1560
I3
sS'hated'
p1561
I38
sS'cuz'
p1562
I3
sS'causing'
p1563
I1
sS'parents'
p1564
I1
sS'tell'
p1565
I9
sS'excited'
p1566
I1
sS'hates'
p1567
I82
sS'generalized'
p1568
I1
sS'march'
p1569
I1
sS'dvds'
p1570
I1
sS'couple'
p1571
I2
sS'condemnation'
p1572
I1
sS'judgement'
p1573
I1
sS'matters'
p1574
I1
sS'game'
p1575
I1
sS'dearly'
p1576
I1
sS'bit'
p1577
I6
sS'd'
p1578
I1
sS'shaped'
p1579
I1
sS'bentlys'
p1580
I1
sS'ignore'
p1581
I1
sS'eek'
p1582
I1
sS'popular'
p1583
I2
sS'google'
p1584
I1
sS'often'
p1585
I2
sS'fucking'
p1586
I174
sS'some'
p1587
I17
sS'back'
p1588
I6
sS'heartbraking'
p1589
I1
sS'heath'
p1590
I2
sS'malfoy'
p1591
I80
sS'mirror'
p1592
I2
sS'pale'
p1593
I1
sS'scarf'
p1594
I1
sS'englishspeaking'
p1595
I1
sS'absolutely'
p1596
I101
sS'sueism'
p1597
I1
sS'religion'
p1598
I2
sS'bogus'
p1599
I5
sS'slash'
p1600
I1
sS'anne'
p1601
I1
sS'dating'
p1602
I1
sS't'
p1603
I3
sS'be'
p1604
I290
sS'run'
p1605
I2
sS'bayers'
p1606
I1
sS'requiem'
p1607
I1
sS'kelsey'
p1608
I1
sS'costumes'
p1609
I2
sS'from'
p1610
I101
sS'by'
p1611
I103
sS'hogwash'
p1612
I1
sS'deserved'
p1613
I2
sS'melbourne'
p1614
I1
sS'theatan'
p1615
I1
sS'idk'
p1616
I2
sS'wotshisface'
p1617
I80
sS'lends'
p1618
I1
sS'wanna'
p1619
I4
sS'seeing'
p1620
I6
sS'threegeneration'
p1621
I1
sS'into'
p1622
I253
sS'drain'
p1623
I1
sS'lesson'
p1624
I1
sS'sports'
p1625
I1
sS'question'
p1626
I2
sS'long'
p1627
I6
sS'bored'
p1628
I1
sS'himself'
p1629
I1
sS'frenzied'
p1630
I1
sS'relaxed'
p1631
I1
sS'bolsters'
p1632
I1
sS'boys'
p1633
I1
sS'larry'
p1634
I1
sS'tragically'
p1635
I1
sS'boyy'
p1636
I1
sS'posted'
p1637
I1
sS'directed'
p1638
I1
sS'biggie'
p1639
I1
sS'monchel'
p1640
I1
sS'up'
p1641
I180
sS'us'
p1642
I11
sS'ur'
p1643
I1
sS'clips'
p1644
I1
sS'uh'
p1645
I1
sS'called'
p1646
I1
sS'freak'
p1647
I1
sS'haunt'
p1648
I2
sS'rofls'
p1649
I1
sS'symantec'
p1650
I1
sS'criticizers'
p1651
I1
sS'predictability'
p1652
I1
sS'codes'
p1653
I3
sS'overcoming'
p1654
I1
sS'fears'
p1655
I1
sS'occasional'
p1656
I1
sS'actors'
p1657
I1
sS'nice'
p1658
I2
sS'everybodys'
p1659
I1
sS'favourite'
p1660
I2
sS'generated'
p1661
I1
sS'equus'
p1662
I1
sS'ago'
p1663
I2
sS'remix'
p1664
I2
sS'land'
p1665
I1
sS'overlooking'
p1666
I1
sS'vice'
p1667
I1
sS'dvd'
p1668
I1
sS'potters'
p1669
I2
sS'nasy'
p1670
I1
sS'emotes'
p1671
I1
sS'admiring'
p1672
I1
sS'vics'
p1673
I1
sS'hella'
p1674
I80
sS'far'
p1675
I10
sS'hello'
p1676
I1
sS'once'
p1677
I4
sS'code'
p1678
I1992
sS'despise'
p1679
I1
sS'clubbin'
p1680
I1
sS'freakin'
p1681
I82
sS'go'
p1682
I23
sS'gossip'
p1683
I1
sS'gl'
p1684
I1
sS'kate'
p1685
I80
sS'issues'
p1686
I2
sS'seemed'
p1687
I1
sS'simon'
p1688
I1
sS'stites'
p1689
I1
sS'young'
p1690
I1
sS'literary'
p1691
I1
sS'dislike'
p1692
I2
sS'sent'
p1693
I1
sS'street'
p1694
I1
sS'mainstream'
p1695
I2
sS'outside'
p1696
I1
sS'panting'
p1697
I80
sS'reopened'
p1698
I1
sS'facebook'
p1699
I1
sS'telling'
p1700
I4
sS'entire'
p1701
I1
sS'magic'
p1702
I1
sS'positions'
p1703
I1
sS'livejournal'
p1704
I1
sS'try'
p1705
I8
sS'race'
p1706
I1
sS'congrats'
p1707
I1
sS'havent'
p1708
I7
sS'ballz'
p1709
I1
sS'folk'
p1710
I1
sS'libarian'
p1711
I1
sS'south'
p1712
I1
sS'plays'
p1713
I1
sS'giving'
p1714
I1
sS'vampire'
p1715
I2
sS'indian'
p1716
I1
sS'whatev'
p1717
I1
sS'nacho'
p1718
I1
sS'hillform'
p1719
I1
sS'lee'
p1720
I2
sS'gathered'
p1721
I1
sS'explore'
p1722
I1
sS'let'
p1723
I2
sS'others'
p1724
I1
sS'sexy'
p1725
I4
sS'great'
p1726
I95
sS'receive'
p1727
I1
sS'involved'
p1728
I1
sS'titanic'
p1729
I1
sS'opinion'
p1730
I85
sS'makes'
p1731
I2
sS'honor'
p1732
I2
sS'thats'
p1733
I88
sS'wif'
p1734
I1
sS'heart'
p1735
I3
sS'win'
p1736
I4
sS'crazy'
p1737
I81
sS'ran'
p1738
I2
sS'dumbest'
p1739
I1
sS'use'
p1740
I2
sS'josie'
p1741
I1
sS'crap'
p1742
I5
sS'hippie'
p1743
I1
sS'frog'
p1744
I1
sS'next'
p1745
I3
sS'few'
p1746
I5
sS'doubt'
p1747
I1
sS'fer'
p1748
I1
sS'lubb'
p1749
I80
sS'sort'
p1750
I3
sS'kenley'
p1751
I1
sS'started'
p1752
I1
sS'halloween'
p1753
I3
sS'about'
p1754
I129
sS'ashamed'
p1755
I1
sS'baby'
p1756
I1
sS'gladly'
p1757
I1
sS'cheapened'
p1758
I1
sS'account'
p1759
I1
sS'balls'
p1760
I16
sS'this'
p1761
I213
sS'lapse'
p1762
I1
sS'when'
p1763
I98
sS'anywhere'
p1764
I1
sS'didnt'
p1765
I10
sS'radcliffe'
p1766
I1
sS'favorite'
p1767
I2
sS'rode'
p1768
I1
sS'something'
p1769
I7
sS'wonderful'
p1770
I1
sS'tan'
p1771
I1
sS'decaying'
p1772
I1
sS'sit'
p1773
I80
sS'need'
p1774
I3
sS'instead'
p1775
I3
sS'secrets.prisoner'
p1776
I1
sS'awesomest'
p1777
I2
sS'watch'
p1778
I96
sS'tied'
p1779
I1
sS'men'
p1780
I1
sS'fits'
p1781
I1
sS'durno'
p1782
I1
sS'criticized'
p1783
I1
sS'fridayharry'
p1784
I1
sS'light'
p1785
I1
sS'noises'
p1786
I80
sS'lines'
p1787
I1
sS'honestly'
p1788
I1
sS'christopher'
p1789
I1
sS'weiners'
p1790
I1
sS'pastings'
p1791
I1
sS'move'
p1792
I4
sS'hugged'
p1793
I1
sS'including'
p1794
I1
sS'costume'
p1795
I2
sS'cruise'
p1796
I18
sS'mentioned'
p1797
I2
sS'bunch'
p1798
I1
sS'perfect'
p1799
I1
sS'bridget'
p1800
I1
sS'la'
p1801
I2
sS'broom'
p1802
I1
sS'madre'
p1803
I1
sS'bye'
p1804
I80
sS'dad'
p1805
I2
sS'crash'
p1806
I9
sS'dan'
p1807
I3
sS'material'
p1808
I80
sS'mention'
p1809
I2
sS'kiss'
p1810
I2
sS'hands'
p1811
I3
sS'realize'
p1812
I1
sS'worlds'
p1813
I1
sS'profound'
p1814
I80
sS'feast'
p1815
I1
sS'unpredictable'
p1816
I1
sS'rockets'
p1817
I1
sS'truth'
p1818
I1
sS'popculture'
p1819
I1
sS'doing'
p1820
I5
sS'booki'
p1821
I1
sS'gary'
p1822
I80
sS'related'
p1823
I2
sS'books'
p1824
I28
sS'measure'
p1825
I1
sS'our'
p1826
I6
sS'sexual'
p1827
I1
sS'special'
p1828
I2
sS'out'
p1829
I269
sS'category'
p1830
I1
sS'placetheres'
p1831
I1
sS'wicca'
p1832
I1
sS'confess'
p1833
I1
sS'critics'
p1834
I3
sS'hilarious'
p1835
I1
sS'calif'
p1836
I1
sS'shut'
p1837
I1
sS'jessica'
p1838
I1
sS'release'
p1839
I1
sS'completely'
p1840
I1
sS'hogwarts'
p1841
I2
sS'collection'
p1842
I1
sS'anyhow'
p1843
I1
sS'g'
p1844
I1
sS'could'
p1845
I9
sS'times'
p1846
I7
sS'conversation'
p1847
I1
sS'pudding'
p1848
I1
sS'margaritas'
p1849
I1
sS'lovethe'
p1850
I80
sS'textsfantasy'
p1851
I1
sS'evilpinkmunky'
p1852
I1
sS'scene'
p1853
I2
sS'hey'
p1854
I7
sS'hahahaha'
p1855
I1
sS'bitch'
p1856
I81
sS'blows'
p1857
I1
sS'scent'
p1858
I1
sS'reference'
p1859
I1
sS'start'
p1860
I161
sS'fuckers'
p1861
I1
sS'their'
p1862
I5
sS'badness'
p1863
I1
sS'final'
p1864
I2
sS'futile'
p1865
I1
sS'shell'
p1866
I1
sS'stars'
p1867
I80
sS'seymour'
p1868
I1
sS'academy'
p1869
I2
sS'realized'
p1870
I1
sS'depressing'
p1871
I188
sS'accompaniment'
p1872
I2
sS'loved'
p1873
I256
sS'boring'
p1874
I92
sS'facile'
p1875
I1
sS'loves'
p1876
I3
sS'gays'
p1877
I1
sS'bet'
p1878
I1
sS'clit'
p1879
I1
sS'villains'
p1880
I1
sS'blogbacklinktitle'
p1881
I1
sS'tonight'
p1882
I5
sS'have'
p1883
I130
sS'dictate'
p1884
I2
sS'throat'
p1885
I80
sS'yuh'
p1886
I1
sS'apparently'
p1887
I5
sS'linked'
p1888
I1
sS'afraid'
p1889
I1
sS'angle'
p1890
I1
sS'min'
p1891
I1
sS'lilo'
p1892
I1
sS'able'
p1893
I2
sS'decomposing'
p1894
I1
sS'archive'
p1895
I1
sS'which'
p1896
I251
sS'jail'
p1897
I1
sS'asshole'
p1898
I1
sS'trivia'
p1899
I1
sS'unless'
p1900
I1
sS'who'
p1901
I183
sS'prisoner'
p1902
I1
sS'why'
p1903
I178
sS'siss'
p1904
I1
sS'clive'
p1905
I1
sS'looked'
p1906
I3
sS'kelsie'
p1907
I80
sS'absurd'
p1908
I3
sS'movie'
p1909
I783
sS'mi3'
p1910
I2
sS'fact'
p1911
I6
sS'oreos'
p1912
I1
sS'kite'
p1913
I1
sS'prettypackaging'
p1914
I1
sS'retarted'
p1915
I80
sS'agreed'
p1916
I1
sS'colourfully'
p1917
I2
sS'anyway'
p1918
I84
sS'bikes'
p1919
I1
sS'muahahaahahah'
p1920
I1
sS'chicken'
p1921
I1
sS'pleased'
p1922
I1
sS'jay'
p1923
I1
sS'should'
p1924
I9
sS'unable'
p1925
I1
sS'riding'
p1926
I1
sS'local'
p1927
I1
sS'hope'
p1928
I4
sS'vigor'
p1929
I80
sS'lucks'
p1930
I1
sS'beat'
p1931
I2
sS'photography'
p1932
I1
sS'overall'
p1933
I2
sS'lucky'
p1934
I1
sS'ones'
p1935
I3
sS'probably'
p1936
I5
sS'unauthorized'
p1937
I1
sS'ended'
p1938
I1
sS'titus'
p1939
I1
sS'calling'
p1940
I1
sS'stuff'
p1941
I3
sS'she'
p1942
I169
sS'looks'
p1943
I8
sS'btw'
p1944
I3
sS'we'
p1945
I219
sS'edition'
p1946
I1
sS'latin'
p1947
I1
sS'desperate'
p1948
I1
sS'packed'
p1949
I1
sS'closet'
p1950
I1
sS'clickfive'
p1951
I1
sS'favor'
p1952
I2
sS'state'
p1953
I1
sS'horrible'
p1954
I181
sS'neither'
p1955
I1
sS'bought'
p1956
I2
sS'hollywoord'
p1957
I1
sS'joy'
p1958
I1
sS'kicking'
p1959
I1
sS'job'
p1960
I2
sS'shittiest'
p1961
I2
sS'joe'
p1962
I1
sS'sitting'
p1963
I1
sS'felicia'
p1964
I80
sS'precious'
p1965
I1
sS'jon'
p1966
I1
sS'hammy'
p1967
I1
sS'figured'
p1968
I1
sS'career'
p1969
I1
sS'joke'
p1970
I2
sS'taking'
p1971
I3
sS'equal'
p1972
I2
sS'etc'
p1973
I1
sS'figures'
p1974
I2
sS'comment'
p1975
I3
sS'rps'
p1976
I1
sS'mountainwatched'
p1977
I1
sS'ca'
p1978
I1
sS'walk'
p1979
I1
sS'invisible'
p1980
I1
sS'crafted'
p1981
I1
sS'respect'
p1982
I2
sS'orig'
p1983
I1
sS'poem'
p1984
I1
sS'bbm'
p1985
I1
sS'quip'
p1986
I1
sS'addition'
p1987
I1
sS'decent'
p1988
I2
sS'quiz'
p1989
I80
sS'diversity'
p1990
I1
sS'vinci'
p1991
I2001
sS'crappy'
p1992
I6
sS'finished'
p1993
I6
sS'headmistresss'
p1994
I1
sS'otp'
p1995
I1
sS'general'
p1996
I1
sS'napoleon'
p1997
I1
sS'therefor'
p1998
I1
sS'loathed'
p1999
I1
sS'plain'
p2000
I80
sS'nd'
p2001
I1
sS'harder'
p2002
I1
sS'will'
p2003
I19
sS'blogbacklinksnippet'
p2004
I1
sS'hahaha'
p2005
I1
sS've'
p2006
I1
sS'almost'
p2007
I6
sS'insanely'
p2008
I80
sS'surprisingly'
p2009
I1
sS'helped'
p2010
I80
sS'vs'
p2011
I2
sS'snuck'
p2012
I81
sS'denial'
p2013
I1
sS'perhaps'
p2014
I2
sS'vintage'
p2015
I1
sS'began'
p2016
I1
sS'speaker'
p2017
I1
sS'party'
p2018
I2
sS'microsoft'
p2019
I1
sS'ball'
p2020
I1
sS'wranglers'
p2021
I1
sS'dakota'
p2022
I1
sS'selfish'
p2023
I1
sS'retarded'
p2024
I1
sS'murderballimmediately'
p2025
I2
sS'student'
p2026
I2
sS'sisters'
p2027
I1
sS'keep'
p2028
I1
sS'arse'
p2029
I1
sS'childishly'
p2030
I1
sS'off'
p2031
I11
sS'center'
p2032
I1
sS'i'
p2033
I4639
sS'well'
p2034
I99
sS'rife'
p2035
I1
sS'firstly'
p2036
I1
sS'drawing'
p2037
I1
sS'latest'
p2038
I1
sS'cried'
p2039
I3
sS'less'
p2040
I2
sS'moments'
p2041
I1
sS'claiming'
p2042
I1
sS'mountainis'
p2043
I1
sS'rocked'
p2044
I1
sS'tautou'
p2045
I3
sS'paul'
p2046
I1
sS'happiness'
p2047
I1
sS'spells'
p2048
I1
sS'guts'
p2049
I1
sS'sky'
p2050
I2
sS'lake'
p2051
I1
sS'bullshit'
p2052
I3
sS'simple'
p2053
I1
sS'add'
p2054
I1
sS'book'
p2055
I135
sS'attractive'
p2056
I1
sS'crack'
p2057
I1
sS'usage'
p2058
I1
sS'x3good'
p2059
I1
sS'match'
p2060
I1
sS'tests'
p2061
I1
sS'five'
p2062
I1
sS'know'
p2063
I276
sS'emma'
p2064
I2
sS'like'
p2065
I894
sS'lost'
p2066
I6
sS'ring'
p2067
I1
sS'loser'
p2068
I1
sS'explaination'
p2069
I1
sS'chick'
p2070
I1
sS'starred'
p2071
I1
sS'lamest'
p2072
I1
sS'page'
p2073
I2
sS'adversity'
p2074
I1
sS'likes'
p2075
I80
sS'because'
p2076
I608
sS'scared'
p2077
I1
sS'immortal'
p2078
I1
sS'hair'
p2079
I1
sS'shes'
p2080
I3
sS'home'
p2081
I2
sS'died'
p2082
I1
sS'supportive'
p2083
I1
sS'garrett'
p2084
I1
sS'does'
p2085
I86
sS'passion'
p2086
I3
sS'allegory'
p2087
I1
sS'screwed'
p2088
I1
sS'earrings'
p2089
I1
sS'inaccurate'
p2090
I5
sS'decline'
p2091
I1
sS'iisucks'
p2092
I1
sS'wesley'
p2093
I2
sS'murdered'
p2094
I1
sS'ripper'
p2095
I1
sS'although'
p2096
I2
sS'sister'
p2097
I1
sS'actual'
p2098
I2
sS'getting'
p2099
I3
sS'hookup'
p2100
I1
sS'shipping'
p2101
I1
sS'outshines'
p2102
I80
sS'sakes'
p2103
I1
sS'whistles'
p2104
I2
sS'tome'
p2105
I1
sS'revise'
p2106
I1
sS'ofbrokeback'
p2107
I1
sS'equally'
p2108
I1
sS'own'
p2109
I4
sS'EMO_POS'
p2110
I9
sS'chris'
p2111
I2
sS'doesnt'
p2112
I6
sS'been'
p2113
I10
sS'theyd'
p2114
I1
sS'forget'
p2115
I1
sS'van'
p2116
I1
sS'whom'
p2117
I1
sS'veil'
p2118
I1
sS'meganpenworthy'
p2119
I1
sS'daniels'
p2120
I1
sS'invisibility'
p2121
I1
sS'dynamite'
p2122
I1
sS'goin'
p2123
I80
sS'buy'
p2124
I2
sS'awesomegood'
p2125
I1
sS'hp'
p2126
I2
sS'but'
p2127
I295
sS'funner'
p2128
I1
sS'eat'
p2129
I1
sS'he'
p2130
I17
sS'count'
p2131
I80
sS'lynn'
p2132
I1
sS'made'
p2133
I13
sS'places'
p2134
I1
sS'whether'
p2135
I2
sS'wish'
p2136
I4
sS'j'
p2137
I2
sS'gayness'
p2138
I2
sS'record'
p2139
I2
sS'stories'
p2140
I5
sS'cake'
p2141
I1
sS'problem'
p2142
I2
sS'piece'
p2143
I2
sS'minutes'
p2144
I3
sS'narnia'
p2145
I2
sS'reservations'
p2146
I1
sS'pic'
p2147
I1
sS'twist'
p2148
I2
sS'consumed'
p2149
I1
sS'crusade'
p2150
I1
sS'education'
p2151
I2
sS'draco'
p2152
I80
sS'girl'
p2153
I4
sS'comparsions'
p2154
I1
sS'compared'
p2155
I2
sS'incredible'
p2156
I1
sS'dressed'
p2157
I1
sS'offensive'
p2158
I1
sS'lately'
p2159
I1
sS'dogtown'
p2160
I1
sS'other'
p2161
I19
sS'weekend.mission'
p2162
I1
sS'sick'
p2163
I5
sS'incredibly'
p2164
I4
sS'talkin'
p2165
I1
sS'conclusion'
p2166
I3
sS'illegally'
p2167
I1
sS'inherently'
p2168
I1
sS'chance'
p2169
I1
sS'kinda'
p2170
I15
sS'friends'
p2171
I86
sS'stitch'
p2172
I1
sS'eyre'
p2173
I80
sS'understand'
p2174
I2
sS'rep'
p2175
I1
stp2176
Rp2177
.